(lp0
Vsw32-eth1
p1
aVsw32-eth2
p2
aVsw32-eth3
p3
aVsw6-eth2
p4
aVsw30-eth3
p5
aVsw3-eth4
p6
aVsw2-eth3
p7
aVsw2-eth2
p8
aVsw18-eth1
p9
aVsw2-eth1
p10
aVsw5-eth3
p11
aVsw11-eth2
p12
aVsw5-eth1
p13
aVsw18-eth3
p14
aVsw11-eth4
p15
aVsw30-eth1
p16
aVsw17-eth1
p17
aVsw17-eth3
p18
aVsw17-eth2
p19
aVsw16-eth3
p20
aVsw33-eth2
p21
aVsw33-eth1
p22
aVsw34-eth2
p23
aVsw11-eth3
p24
aVsw34-eth1
p25
aVsw16-eth2
p26
aVsw30-eth2
p27
aVsw16-eth1
p28
aVsw11-eth1
p29
aVsw6-eth3
p30
aVsw28-eth3
p31
aVsw28-eth1
p32
aVsw12-eth2
p33
aVsw9-eth1
p34
aVsw12-eth1
p35
aVsw13-eth1
p36
aVsw13-eth3
p37
aVsw6-eth1
p38
aVsw7-eth1
p39
aVsw7-eth2
p40
aVsw29-eth1
p41
aVsw29-eth2
p42
aVsw35-eth1
p43
aVsw9-eth2
p44
aVsw35-eth3
p45
aVsw35-eth2
p46
aVsw8-eth1
p47
aVsw3-eth3
p48
aVsw8-eth3
p49
aVsw1-eth2
p50
aVsw1-eth1
p51
aVsw31-eth1
p52
aVsw10-eth1
p53
aVsw10-eth2
p54
aVsw31-eth2
p55
aVsw15-eth2
p56
aVsw15-eth1
p57
aVsw20-eth2
p58
aVsw20-eth1
p59
aVsw36-eth1
p60
aVsw36-eth3
p61
a.