(lp0
Vsw11-eth3
p1
aVsw27-eth2
p2
aVsw16-eth1
p3
aVsw9-eth2
p4
aVsw9-eth1
p5
aVsw11-eth4
p6
aVsw16-eth3
p7
aVsw8-eth2
p8
aVsw8-eth3
p9
aVsw27-eth3
p10
aVsw28-eth2
p11
aVsw28-eth1
p12
aVsw15-eth2
p13
aVsw15-eth1
p14
aVsw13-eth1
p15
aVsw13-eth3
p16
aVsw13-eth2
p17
aVsw14-eth2
p18
aVsw14-eth1
p19
a.