(lp0
Vs20-eth1
p1
aVs34-eth1
p2
aVs34-eth2
p3
aVs20-eth2
p4
aVs12-eth1
p5
aVs9-eth1
p6
aVs12-eth2
p7
aVs17-eth3
p8
aVs31-eth2
p9
aVs31-eth1
p10
aVs15-eth1
p11
aVs29-eth2
p12
aVs7-eth2
p13
aVs7-eth1
p14
aVs29-eth1
p15
aVs35-eth3
p16
aVs35-eth2
p17
aVs35-eth1
p18
aVs8-eth1
p19
aVs11-eth2
p20
aVs1-eth1
p21
aVs15-eth2
p22
aVs1-eth2
p23
aVs13-eth3
p24
aVs8-eth3
p25
aVs16-eth3
p26
aVs13-eth1
p27
aVs30-eth2
p28
aVs30-eth3
p29
aVs30-eth1
p30
aVs16-eth1
p31
aVs10-eth1
p32
aVs16-eth2
p33
aVs10-eth2
p34
aVs36-eth3
p35
aVs36-eth1
p36
aVs33-eth1
p37
aVs33-eth2
p38
aVs5-eth1
p39
aVs5-eth3
p40
aVs11-eth1
p41
aVs11-eth3
p42
aVs9-eth2
p43
aVs11-eth4
p44
aVs18-eth3
p45
aVs18-eth1
p46
aVs17-eth2
p47
aVs28-eth1
p48
aVs28-eth3
p49
aVs3-eth4
p50
aVs3-eth3
p51
aVs17-eth1
p52
aVs6-eth1
p53
aVs2-eth1
p54
aVs2-eth2
p55
aVs2-eth3
p56
aVs6-eth3
p57
aVs32-eth2
p58
aVs32-eth3
p59
aVs6-eth2
p60
aVs32-eth1
p61
a.