(lp0
Vs14-eth2
p1
aVs8-eth3
p2
aVs14-eth1
p3
aVs28-eth1
p4
aVs9-eth1
p5
aVs28-eth2
p6
aVs15-eth1
p7
aVs8-eth2
p8
aVs13-eth2
p9
aVs15-eth2
p10
aVs11-eth4
p11
aVs16-eth1
p12
aVs16-eth3
p13
aVs13-eth1
p14
aVs9-eth2
p15
aVs13-eth3
p16
aVs11-eth3
p17
aVs27-eth2
p18
aVs27-eth3
p19
a.